; Function Attrs: mustprogress uwtable
define dso_local void @_ZN19cmUVJobServerClient4ImplC2ER9uv_loop_s(ptr noundef nonnull align 8 dereferenceable(104) %0, ptr noundef nonnull align 8 dereferenceable(848) %1) unnamed_addr #3 align 2 personality ptr @__gxx_personality_v0 {
  store ptr getelementptr inbounds ({ [7 x ptr] }, ptr @_ZTVN19cmUVJobServerClient4ImplE, i64 0, i32 0, i64 2), ptr %0, align 8
  %3 = getelementptr inbounds i8, ptr %0, i64 8
  store ptr %1, ptr %3, align 8
  %4 = getelementptr inbounds i8, ptr %0, i64 16
  tail call void @_ZN2cm19uv_handle_ptr_base_I9uv_idle_sEC2Ev(ptr noundef nonnull align 8 dereferenceable(16) %4)
  %5 = getelementptr inbounds i8, ptr %0, i64 32
  %6 = getelementptr inbounds i8, ptr %0, i64 64
  tail call void @llvm.memset.p0.i64(ptr noundef nonnull align 8 dereferenceable(72) %5, i8 0, i64 72, i1 false)
  %7 = load ptr, ptr %3, align 8
  %8 = invoke noundef i32 @_ZN2cm11uv_idle_ptr4initER9uv_loop_sPv(ptr noundef nonnull align 8 dereferenceable(16) %4, ptr noundef nonnull align 8 dereferenceable(848) %7, ptr noundef nonnull %0)
          to label %9 unwind label %10

9:                                                ; preds = %2
  ret void

10:                                               ; preds = %2
  %11 = landingpad { ptr, i32 }
          cleanup
  %12 = getelementptr inbounds i8, ptr %0, i64 80
  %13 = load ptr, ptr %12, align 8
  %.not.i.i = icmp eq ptr %13, null
  br i1 %.not.i.i, label %_ZNSt8functionIFviEED2Ev.exit, label %14

14:                                               ; preds = %10
  %15 = invoke noundef zeroext i1 %13(ptr noundef nonnull align 8 dereferenceable(16) %6, ptr noundef nonnull align 8 dereferenceable(16) %6, i32 noundef 3)
          to label %_ZNSt8functionIFviEED2Ev.exit unwind label %16

16:                                               ; preds = %14
  %17 = landingpad { ptr, i32 }
          catch ptr null
  %18 = extractvalue { ptr, i32 } %17, 0
  tail call void @__clang_call_terminate(ptr %18) #23
  unreachable

_ZNSt8functionIFviEED2Ev.exit:                    ; preds = %10, %14
  %19 = getelementptr inbounds i8, ptr %0, i64 48
  %20 = load ptr, ptr %19, align 8
  %.not.i.i3 = icmp eq ptr %20, null
  br i1 %.not.i.i3, label %_ZNSt8functionIFvvEED2Ev.exit, label %21

21:                                               ; preds = %_ZNSt8functionIFviEED2Ev.exit
  %22 = invoke noundef zeroext i1 %20(ptr noundef nonnull align 8 dereferenceable(16) %5, ptr noundef nonnull align 8 dereferenceable(16) %5, i32 noundef 3)
          to label %_ZNSt8functionIFvvEED2Ev.exit unwind label %23

23:                                               ; preds = %21
  %24 = landingpad { ptr, i32 }
          catch ptr null
  %25 = extractvalue { ptr, i32 } %24, 0
  tail call void @__clang_call_terminate(ptr %25) #23
  unreachable

_ZNSt8functionIFvvEED2Ev.exit:                    ; preds = %_ZNSt8functionIFviEED2Ev.exit, %21
  tail call void @_ZN2cm19uv_handle_ptr_base_I9uv_idle_sED2Ev(ptr noundef nonnull align 8 dereferenceable(16) %4) #24
  resume { ptr, i32 } %11
}